target datalayout = "e-m:e-p270:32:32-p271:32:32-p272:64:64-i64:64-i128:128-f80:128-n8:16:32:64-S128"
target triple = "x86_64-pc-linux-gnu"

%struct.ForEachState = type { ptr, i32 }
%struct.List = type { i32, i32, i32, ptr, [0 x %union.ListCell] }
%union.ListCell = type { ptr }
%struct.PathTarget = type { i32, ptr, ptr, %struct.QualCost, i32, i32 }
%struct.QualCost = type { double, double }
%struct.split_pathtarget_item = type { ptr, i32 }

; Function Attrs: nounwind uwtable
define dso_local void @add_column_to_pathtarget(ptr noundef %0, ptr noundef %1, i32 noundef %2) #0 {
  %4 = alloca ptr, align 8
  %5 = alloca ptr, align 8
  %6 = alloca i32, align 4
  %7 = alloca i32, align 4
  %8 = alloca i32, align 4
  store ptr %0, ptr %4, align 8
  store ptr %1, ptr %5, align 8
  store i32 %2, ptr %6, align 4
  %9 = load ptr, ptr %4, align 8
  %10 = getelementptr inbounds nuw %struct.PathTarget, ptr %9, i32 0, i32 1
  %11 = load ptr, ptr %10, align 8
  %12 = load ptr, ptr %5, align 8
  %13 = call ptr @lappend(ptr noundef %11, ptr noundef %12)
  %14 = load ptr, ptr %4, align 8
  %15 = getelementptr inbounds nuw %struct.PathTarget, ptr %14, i32 0, i32 1
  store ptr %13, ptr %15, align 8
  %16 = load ptr, ptr %4, align 8
  %17 = getelementptr inbounds nuw %struct.PathTarget, ptr %16, i32 0, i32 2
  %18 = load ptr, ptr %17, align 8
  %19 = icmp ne ptr %18, null
  br i1 %19, label %20, label %42

20:                                               ; preds = %3
  call void @llvm.lifetime.start.p0(i64 4, ptr %7) #7
  %21 = load ptr, ptr %4, align 8
  %22 = getelementptr inbounds nuw %struct.PathTarget, ptr %21, i32 0, i32 1
  %23 = load ptr, ptr %22, align 8
  %24 = call i32 @list_length(ptr noundef %23)
  store i32 %24, ptr %7, align 4
  %25 = load ptr, ptr %4, align 8
  %26 = getelementptr inbounds nuw %struct.PathTarget, ptr %25, i32 0, i32 2
  %27 = load ptr, ptr %26, align 8
  %28 = load i32, ptr %7, align 4
  %29 = sext i32 %28 to i64
  %30 = mul i64 %29, 4
  %31 = call ptr @repalloc(ptr noundef %27, i64 noundef %30)
  %32 = load ptr, ptr %4, align 8
  %33 = getelementptr inbounds nuw %struct.PathTarget, ptr %32, i32 0, i32 2
  store ptr %31, ptr %33, align 8
  %34 = load i32, ptr %6, align 4
  %35 = load ptr, ptr %4, align 8
  %36 = getelementptr inbounds nuw %struct.PathTarget, ptr %35, i32 0, i32 2
  %37 = load ptr, ptr %36, align 8
  %38 = load i32, ptr %7, align 4
  %39 = sub i32 %38, 1
  %40 = sext i32 %39 to i64
  %41 = getelementptr inbounds i32, ptr %37, i64 %40
  store i32 %34, ptr %41, align 4
  call void @llvm.lifetime.end.p0(i64 4, ptr %7) #7
  br label %65

42:                                               ; preds = %3
  %43 = load i32, ptr %6, align 4
  %44 = icmp ne i32 %43, 0
  br i1 %44, label %45, label %64

45:                                               ; preds = %42
  call void @llvm.lifetime.start.p0(i64 4, ptr %8) #7
  %46 = load ptr, ptr %4, align 8
  %47 = getelementptr inbounds nuw %struct.PathTarget, ptr %46, i32 0, i32 1
  %48 = load ptr, ptr %47, align 8
  %49 = call i32 @list_length(ptr noundef %48)
  store i32 %49, ptr %8, align 4
  %50 = load i32, ptr %8, align 4
  %51 = sext i32 %50 to i64
  %52 = mul i64 %51, 4
  %53 = call ptr @palloc0(i64 noundef %52)
  %54 = load ptr, ptr %4, align 8
  %55 = getelementptr inbounds nuw %struct.PathTarget, ptr %54, i32 0, i32 2
  store ptr %53, ptr %55, align 8
  %56 = load i32, ptr %6, align 4
  %57 = load ptr, ptr %4, align 8
  %58 = getelementptr inbounds nuw %struct.PathTarget, ptr %57, i32 0, i32 2
  %59 = load ptr, ptr %58, align 8
  %60 = load i32, ptr %8, align 4
  %61 = sub i32 %60, 1
  %62 = sext i32 %61 to i64
  %63 = getelementptr inbounds i32, ptr %59, i64 %62
  store i32 %56, ptr %63, align 4
  call void @llvm.lifetime.end.p0(i64 4, ptr %8) #7
  br label %64

64:                                               ; preds = %45, %42
  br label %65

65:                                               ; preds = %64, %20
  %66 = load ptr, ptr %4, align 8
  %67 = getelementptr inbounds nuw %struct.PathTarget, ptr %66, i32 0, i32 5
  %68 = load i32, ptr %67, align 4
  %69 = icmp eq i32 %68, 2
  br i1 %69, label %70, label %73

70:                                               ; preds = %65
  %71 = load ptr, ptr %4, align 8
  %72 = getelementptr inbounds nuw %struct.PathTarget, ptr %71, i32 0, i32 5
  store i32 0, ptr %72, align 4
  br label %73

73:                                               ; preds = %70, %65
  ret void
}

; Function Attrs: inlinehint nounwind uwtable
define internal i32 @list_length(ptr noundef %0) #4 {
  %2 = alloca ptr, align 8
  store ptr %0, ptr %2, align 8
  %3 = load ptr, ptr %2, align 8
  %4 = icmp ne ptr %3, null
  br i1 %4, label %5, label %9

5:                                                ; preds = %1
  %6 = load ptr, ptr %2, align 8
  %7 = getelementptr inbounds nuw %struct.List, ptr %6, i32 0, i32 1
  %8 = load i32, ptr %7, align 4
  br label %10

9:                                                ; preds = %1
  br label %10

10:                                               ; preds = %9, %5
  %11 = phi i32 [ %8, %5 ], [ 0, %9 ]
  ret i32 %11
}

; Function Attrs: nounwind uwtable
define internal void @add_sp_item_to_pathtarget(ptr noundef %0, ptr noundef %1) #0 {
  %3 = alloca ptr, align 8
  %4 = alloca ptr, align 8
  %5 = alloca i32, align 4
  %6 = alloca ptr, align 8
  %7 = alloca %struct.ForEachState, align 8
  %8 = alloca i32, align 4
  %9 = alloca ptr, align 8
  %10 = alloca i32, align 4
  store ptr %0, ptr %3, align 8
  store ptr %1, ptr %4, align 8
  call void @llvm.lifetime.start.p0(i64 4, ptr %5) #7
  call void @llvm.lifetime.start.p0(i64 8, ptr %6) #7
  store i32 0, ptr %5, align 4
  call void @llvm.lifetime.start.p0(i64 16, ptr %7) #7
  %11 = getelementptr inbounds nuw %struct.ForEachState, ptr %7, i32 0, i32 0
  %12 = load ptr, ptr %3, align 8
  %13 = getelementptr inbounds nuw %struct.PathTarget, ptr %12, i32 0, i32 1
  %14 = load ptr, ptr %13, align 8
  store ptr %14, ptr %11, align 8
  %15 = getelementptr inbounds nuw %struct.ForEachState, ptr %7, i32 0, i32 1
  store i32 0, ptr %15, align 8
  %16 = getelementptr i8, ptr %7, i64 12
  call void @llvm.memset.p0.i64(ptr align 4 %16, i8 0, i64 4, i1 false)
  br label %17

17:                                               ; preds = %117, %2
  %18 = getelementptr inbounds nuw %struct.ForEachState, ptr %7, i32 0, i32 0
  %19 = load ptr, ptr %18, align 8
  %20 = icmp ne ptr %19, null
  br i1 %20, label %21, label %38

21:                                               ; preds = %17
  %22 = getelementptr inbounds nuw %struct.ForEachState, ptr %7, i32 0, i32 1
  %23 = load i32, ptr %22, align 8
  %24 = getelementptr inbounds nuw %struct.ForEachState, ptr %7, i32 0, i32 0
  %25 = load ptr, ptr %24, align 8
  %26 = getelementptr inbounds nuw %struct.List, ptr %25, i32 0, i32 1
  %27 = load i32, ptr %26, align 4
  %28 = icmp slt i32 %23, %27
  br i1 %28, label %29, label %38

29:                                               ; preds = %21
  %30 = getelementptr inbounds nuw %struct.ForEachState, ptr %7, i32 0, i32 0
  %31 = load ptr, ptr %30, align 8
  %32 = getelementptr inbounds nuw %struct.List, ptr %31, i32 0, i32 3
  %33 = load ptr, ptr %32, align 8
  %34 = getelementptr inbounds nuw %struct.ForEachState, ptr %7, i32 0, i32 1
  %35 = load i32, ptr %34, align 8
  %36 = sext i32 %35 to i64
  %37 = getelementptr inbounds %union.ListCell, ptr %33, i64 %36
  store ptr %37, ptr %6, align 8
  br label %39

38:                                               ; preds = %21, %17
  store ptr null, ptr %6, align 8
  br label %39

39:                                               ; preds = %38, %29
  %40 = phi i32 [ 1, %29 ], [ 0, %38 ]
  %41 = icmp ne i32 %40, 0
  br i1 %41, label %43, label %42

42:                                               ; preds = %39
  store i32 2, ptr %8, align 4
  br label %121

43:                                               ; preds = %39
  call void @llvm.lifetime.start.p0(i64 8, ptr %9) #7
  %44 = load ptr, ptr %6, align 8
  %45 = load ptr, ptr %44, align 8
  store ptr %45, ptr %9, align 8
  call void @llvm.lifetime.start.p0(i64 4, ptr %10) #7
  %46 = load ptr, ptr %3, align 8
  %47 = getelementptr inbounds nuw %struct.PathTarget, ptr %46, i32 0, i32 2
  %48 = load ptr, ptr %47, align 8
  %49 = icmp ne ptr %48, null
  br i1 %49, label %50, label %58

50:                                               ; preds = %43
  %51 = load ptr, ptr %3, align 8
  %52 = getelementptr inbounds nuw %struct.PathTarget, ptr %51, i32 0, i32 2
  %53 = load ptr, ptr %52, align 8
  %54 = load i32, ptr %5, align 4
  %55 = sext i32 %54 to i64
  %56 = getelementptr inbounds i32, ptr %53, i64 %55
  %57 = load i32, ptr %56, align 4
  br label %59

58:                                               ; preds = %43
  br label %59

59:                                               ; preds = %58, %50
  %60 = phi i32 [ %57, %50 ], [ 0, %58 ]
  store i32 %60, ptr %10, align 4
  %61 = load ptr, ptr %4, align 8
  %62 = getelementptr inbounds nuw %struct.split_pathtarget_item, ptr %61, i32 0, i32 1
  %63 = load i32, ptr %62, align 8
  %64 = load i32, ptr %10, align 4
  %65 = icmp eq i32 %63, %64
  br i1 %65, label %74, label %66

66:                                               ; preds = %59
  %67 = load ptr, ptr %4, align 8
  %68 = getelementptr inbounds nuw %struct.split_pathtarget_item, ptr %67, i32 0, i32 1
  %69 = load i32, ptr %68, align 8
  %70 = icmp eq i32 %69, 0
  br i1 %70, label %74, label %71

71:                                               ; preds = %66
  %72 = load i32, ptr %10, align 4
  %73 = icmp eq i32 %72, 0
  br i1 %73, label %74, label %111

74:                                               ; preds = %71, %66, %59
  %75 = load ptr, ptr %4, align 8
  %76 = getelementptr inbounds nuw %struct.split_pathtarget_item, ptr %75, i32 0, i32 0
  %77 = load ptr, ptr %76, align 8
  %78 = load ptr, ptr %9, align 8
  %79 = call zeroext i1 @equal(ptr noundef %77, ptr noundef %78)
  br i1 %79, label %80, label %111

80:                                               ; preds = %74
  %81 = load ptr, ptr %4, align 8
  %82 = getelementptr inbounds nuw %struct.split_pathtarget_item, ptr %81, i32 0, i32 1
  %83 = load i32, ptr %82, align 8
  %84 = icmp ne i32 %83, 0
  br i1 %84, label %85, label %110

85:                                               ; preds = %80
  %86 = load ptr, ptr %3, align 8
  %87 = getelementptr inbounds nuw %struct.PathTarget, ptr %86, i32 0, i32 2
  %88 = load ptr, ptr %87, align 8
  %89 = icmp eq ptr %88, null
  br i1 %89, label %90, label %100

90:                                               ; preds = %85
  %91 = load ptr, ptr %3, align 8
  %92 = getelementptr inbounds nuw %struct.PathTarget, ptr %91, i32 0, i32 1
  %93 = load ptr, ptr %92, align 8
  %94 = call i32 @list_length(ptr noundef %93)
  %95 = sext i32 %94 to i64
  %96 = mul i64 %95, 4
  %97 = call ptr @palloc0(i64 noundef %96)
  %98 = load ptr, ptr %3, align 8
  %99 = getelementptr inbounds nuw %struct.PathTarget, ptr %98, i32 0, i32 2
  store ptr %97, ptr %99, align 8
  br label %100

100:                                              ; preds = %90, %85
  %101 = load ptr, ptr %4, align 8
  %102 = getelementptr inbounds nuw %struct.split_pathtarget_item, ptr %101, i32 0, i32 1
  %103 = load i32, ptr %102, align 8
  %104 = load ptr, ptr %3, align 8
  %105 = getelementptr inbounds nuw %struct.PathTarget, ptr %104, i32 0, i32 2
  %106 = load ptr, ptr %105, align 8
  %107 = load i32, ptr %5, align 4
  %108 = sext i32 %107 to i64
  %109 = getelementptr inbounds i32, ptr %106, i64 %108
  store i32 %103, ptr %109, align 4
  br label %110

110:                                              ; preds = %100, %80
  store i32 1, ptr %8, align 4
  br label %114

111:                                              ; preds = %74, %71
  %112 = load i32, ptr %5, align 4
  %113 = add i32 %112, 1
  store i32 %113, ptr %5, align 4
  store i32 0, ptr %8, align 4
  br label %114

114:                                              ; preds = %111, %110
  call void @llvm.lifetime.end.p0(i64 4, ptr %10) #7
  call void @llvm.lifetime.end.p0(i64 8, ptr %9) #7
  %115 = load i32, ptr %8, align 4
  switch i32 %115, label %121 [
    i32 0, label %116
  ]

116:                                              ; preds = %114
  br label %117

117:                                              ; preds = %116
  %118 = getelementptr inbounds nuw %struct.ForEachState, ptr %7, i32 0, i32 1
  %119 = load i32, ptr %118, align 8
  %120 = add i32 %119, 1
  store i32 %120, ptr %118, align 8
  br label %17, !llvm.loop !35

121:                                              ; preds = %114, %42
  call void @llvm.lifetime.end.p0(i64 16, ptr %7) #7
  %122 = load i32, ptr %8, align 4
  switch i32 %122, label %132 [
    i32 2, label %123
  ]

123:                                              ; preds = %121
  %124 = load ptr, ptr %3, align 8
  %125 = load ptr, ptr %4, align 8
  %126 = getelementptr inbounds nuw %struct.split_pathtarget_item, ptr %125, i32 0, i32 0
  %127 = load ptr, ptr %126, align 8
  %128 = call ptr @copyObjectImpl(ptr noundef %127)
  %129 = load ptr, ptr %4, align 8
  %130 = getelementptr inbounds nuw %struct.split_pathtarget_item, ptr %129, i32 0, i32 1
  %131 = load i32, ptr %130, align 8
  call void @add_column_to_pathtarget(ptr noundef %124, ptr noundef %128, i32 noundef %131)
  store i32 0, ptr %8, align 4
  br label %132

132:                                              ; preds = %123, %121
  call void @llvm.lifetime.end.p0(i64 8, ptr %6) #7
  call void @llvm.lifetime.end.p0(i64 4, ptr %5) #7
  %133 = load i32, ptr %8, align 4
  switch i32 %133, label %135 [
    i32 0, label %134
    i32 1, label %134
  ]

134:                                              ; preds = %132, %132
  ret void

135:                                              ; preds = %132
  unreachable
}