; Function Attrs: nounwind uwtable
define internal fastcc void @add_sp_item_to_pathtarget(ptr noundef captures(none) %0, ptr noundef readonly captures(none) %1) unnamed_addr #0 {
  %3 = getelementptr inbounds nuw i8, ptr %0, i64 8
  %4 = load ptr, ptr %3, align 8
  %.not = icmp eq ptr %4, null
  br i1 %.not, label %.critedge, label %.lr.ph

.lr.ph:                                           ; preds = %2
  %5 = getelementptr inbounds nuw i8, ptr %4, i64 4
  %6 = getelementptr inbounds nuw i8, ptr %4, i64 16
  %7 = getelementptr inbounds nuw i8, ptr %0, i64 16
  %8 = getelementptr inbounds nuw i8, ptr %1, i64 8
  %9 = load i32, ptr %5, align 4
  %10 = icmp sgt i32 %9, 0
  br i1 %10, label %.lr.ph53, label %.critedge

.lr.ph53:                                         ; preds = %.lr.ph, %47
  %11 = phi i32 [ %48, %47 ], [ %9, %.lr.ph ]
  %indvars.iv = phi i64 [ %indvars.iv.next, %47 ], [ 0, %.lr.ph ]
  %12 = load ptr, ptr %6, align 8
  %13 = getelementptr inbounds nuw %union.ListCell, ptr %12, i64 %indvars.iv
  %14 = load ptr, ptr %13, align 8
  %15 = load ptr, ptr %7, align 8
  %.not37 = icmp eq ptr %15, null
  br i1 %.not37, label %19, label %16

16:                                               ; preds = %.lr.ph53
  %17 = getelementptr inbounds nuw i32, ptr %15, i64 %indvars.iv
  %18 = load i32, ptr %17, align 4
  br label %19

19:                                               ; preds = %.lr.ph53, %16
  %20 = phi i32 [ %18, %16 ], [ 0, %.lr.ph53 ]
  %21 = load i32, ptr %8, align 8
  %22 = icmp eq i32 %21, %20
  br i1 %22, label %26, label %23

23:                                               ; preds = %19
  %24 = icmp eq i32 %21, 0
  %25 = icmp eq i32 %20, 0
  %or.cond = or i1 %25, %24
  br i1 %or.cond, label %26, label %47

26:                                               ; preds = %23, %19
  %27 = load ptr, ptr %1, align 8
  %28 = tail call zeroext i1 @equal(ptr noundef %27, ptr noundef %14) #10
  br i1 %28, label %.split, label %._crit_edge

._crit_edge:                                      ; preds = %26
  %.pre = load i32, ptr %5, align 4
  br label %47

.split:                                           ; preds = %26
  %29 = load i32, ptr %8, align 8
  %.not38 = icmp eq i32 %29, 0
  br i1 %.not38, label %add_column_to_pathtarget.exit, label %30

30:                                               ; preds = %.split
  %31 = load ptr, ptr %7, align 8
  %32 = icmp eq ptr %31, null
  br i1 %32, label %33, label %42

33:                                               ; preds = %30
  %34 = load ptr, ptr %3, align 8
  %.not.i = icmp eq ptr %34, null
  br i1 %.not.i, label %list_length.exit, label %35

35:                                               ; preds = %33
  %36 = getelementptr inbounds nuw i8, ptr %34, i64 4
  %37 = load i32, ptr %36, align 4
  %38 = sext i32 %37 to i64
  %39 = shl nsw i64 %38, 2
  br label %list_length.exit

list_length.exit:                                 ; preds = %33, %35
  %40 = phi i64 [ %39, %35 ], [ 0, %33 ]
  %41 = tail call ptr @palloc0(i64 noundef %40) #10
  store ptr %41, ptr %7, align 8
  %.pre58 = load i32, ptr %8, align 8
  br label %42

42:                                               ; preds = %list_length.exit, %30
  %43 = phi ptr [ %41, %list_length.exit ], [ %31, %30 ]
  %44 = phi i32 [ %.pre58, %list_length.exit ], [ %29, %30 ]
  %sext = shl i64 %indvars.iv, 32
  %45 = ashr exact i64 %sext, 30
  %46 = getelementptr inbounds i8, ptr %43, i64 %45
  store i32 %44, ptr %46, align 4
  br label %add_column_to_pathtarget.exit

47:                                               ; preds = %._crit_edge, %23
  %48 = phi i32 [ %.pre, %._crit_edge ], [ %11, %23 ]
  %indvars.iv.next = add nuw nsw i64 %indvars.iv, 1
  %49 = sext i32 %48 to i64
  %50 = icmp slt i64 %indvars.iv.next, %49
  br i1 %50, label %.lr.ph53, label %.critedge

.critedge:                                        ; preds = %47, %.lr.ph, %2
  %51 = load ptr, ptr %1, align 8
  %52 = tail call ptr @copyObjectImpl(ptr noundef %51) #10
  %53 = getelementptr inbounds nuw i8, ptr %1, i64 8
  %54 = load i32, ptr %53, align 8
  %55 = load ptr, ptr %3, align 8
  %56 = tail call ptr @lappend(ptr noundef %55, ptr noundef %52) #10
  store ptr %56, ptr %3, align 8
  %57 = getelementptr inbounds nuw i8, ptr %0, i64 16
  %58 = load ptr, ptr %57, align 8
  %.not.i39 = icmp eq ptr %58, null
  br i1 %.not.i39, label %67, label %59

59:                                               ; preds = %.critedge
  %.not.i.i = icmp eq ptr %56, null
  br i1 %.not.i.i, label %list_length.exit.i, label %60

60:                                               ; preds = %59
  %61 = getelementptr inbounds nuw i8, ptr %56, i64 4
  %62 = load i32, ptr %61, align 4
  br label %list_length.exit.i

list_length.exit.i:                               ; preds = %60, %59
  %63 = phi i32 [ %62, %60 ], [ 0, %59 ]
  %64 = sext i32 %63 to i64
  %65 = shl nsw i64 %64, 2
  %66 = tail call ptr @repalloc(ptr noundef nonnull %58, i64 noundef %65) #10
  br label %.sink.split.i

67:                                               ; preds = %.critedge
  %.not19.i = icmp eq i32 %54, 0
  br i1 %.not19.i, label %79, label %68

68:                                               ; preds = %67
  %.not.i20.i = icmp eq ptr %56, null
  br i1 %.not.i20.i, label %list_length.exit21.i, label %69

69:                                               ; preds = %68
  %70 = getelementptr inbounds nuw i8, ptr %56, i64 4
  %71 = load i32, ptr %70, align 4
  br label %list_length.exit21.i

list_length.exit21.i:                             ; preds = %69, %68
  %72 = phi i32 [ %71, %69 ], [ 0, %68 ]
  %73 = sext i32 %72 to i64
  %74 = shl nsw i64 %73, 2
  %75 = tail call ptr @palloc0(i64 noundef %74) #10
  br label %.sink.split.i

.sink.split.i:                                    ; preds = %list_length.exit21.i, %list_length.exit.i
  %.sink.i = phi ptr [ %75, %list_length.exit21.i ], [ %66, %list_length.exit.i ]
  %.sink24.i = phi i32 [ %72, %list_length.exit21.i ], [ %63, %list_length.exit.i ]
  store ptr %.sink.i, ptr %57, align 8
  %76 = add i32 %.sink24.i, -1
  %77 = sext i32 %76 to i64
  %78 = getelementptr inbounds i32, ptr %.sink.i, i64 %77
  store i32 %54, ptr %78, align 4
  br label %79

79:                                               ; preds = %.sink.split.i, %67
  %80 = getelementptr inbounds nuw i8, ptr %0, i64 44
  %81 = load i32, ptr %80, align 4
  %82 = icmp eq i32 %81, 2
  br i1 %82, label %83, label %add_column_to_pathtarget.exit

83:                                               ; preds = %79
  store i32 0, ptr %80, align 4
  br label %add_column_to_pathtarget.exit

add_column_to_pathtarget.exit:                    ; preds = %83, %79, %.split, %42
  ret void
}